target datalayout = "e-m:e-p270:32:32-p271:32:32-p272:64:64-i64:64-i128:128-f80:128-n8:16:32:64-S128"
target triple = "x86_64-pc-linux-gnu"

%struct.Vec_Int_t_ = type { i32, i32, ptr }

; Function Attrs: nounwind uwtable
define internal ptr @Vec_IntEntryP(ptr noundef %0, i32 noundef %1) #0 {
  %3 = alloca ptr, align 8
  %4 = alloca i32, align 4
  store ptr %0, ptr %3, align 8
  store i32 %1, ptr %4, align 4
  %5 = load ptr, ptr %3, align 8
  %6 = getelementptr inbounds %struct.Vec_Int_t_, ptr %5, i32 0, i32 2
  %7 = load ptr, ptr %6, align 8
  %8 = load i32, ptr %4, align 4
  %9 = sext i32 %8 to i64
  %10 = getelementptr inbounds i32, ptr %7, i64 %9
  ret ptr %10
}

; Function Attrs: nounwind uwtable
define internal i32 @Vec_IntSize(ptr noundef %0) #0 {
  %2 = alloca ptr, align 8
  store ptr %0, ptr %2, align 8
  %3 = load ptr, ptr %2, align 8
  %4 = getelementptr inbounds %struct.Vec_Int_t_, ptr %3, i32 0, i32 1
  %5 = load i32, ptr %4, align 4
  ret i32 %5
}

; Function Attrs: nounwind uwtable
define internal i32 @Vec_IntEntry(ptr noundef %0, i32 noundef %1) #0 {
  %3 = alloca ptr, align 8
  %4 = alloca i32, align 4
  store ptr %0, ptr %3, align 8
  store i32 %1, ptr %4, align 4
  %5 = load ptr, ptr %3, align 8
  %6 = getelementptr inbounds %struct.Vec_Int_t_, ptr %5, i32 0, i32 2
  %7 = load ptr, ptr %6, align 8
  %8 = load i32, ptr %4, align 4
  %9 = sext i32 %8 to i64
  %10 = getelementptr inbounds i32, ptr %7, i64 %9
  %11 = load i32, ptr %10, align 4
  ret i32 %11
}

; Function Attrs: nounwind uwtable
define ptr @Sbm_AddCardinSolver2(i32 noundef %0, ptr noundef %1, ptr noundef %2) #0 {
  %4 = alloca i32, align 4
  %5 = alloca ptr, align 8
  %6 = alloca ptr, align 8
  %7 = alloca ptr, align 8
  %8 = alloca ptr, align 8
  %9 = alloca i32, align 4
  %10 = alloca i32, align 4
  %11 = alloca i32, align 4
  %12 = alloca ptr, align 8
  store i32 %0, ptr %4, align 4
  store ptr %1, ptr %5, align 8
  store ptr %2, ptr %6, align 8
  store ptr null, ptr %7, align 8
  store ptr null, ptr %8, align 8
  %13 = load i32, ptr %4, align 4
  %14 = call i32 @Card_AddCardinSolver(i32 noundef %13, ptr noundef %7, ptr noundef %8)
  store i32 %14, ptr %9, align 4
  %15 = call ptr @sat_solver_new()
  store ptr %15, ptr %12, align 8
  %16 = load ptr, ptr %12, align 8
  %17 = load i32, ptr %9, align 4
  call void @sat_solver_setnvars(ptr noundef %16, i32 noundef %17)
  store i32 0, ptr %10, align 4
  %18 = load ptr, ptr %8, align 8
  %19 = load i32, ptr %10, align 4
  %20 = add nsw i32 %19, 1
  store i32 %20, ptr %10, align 4
  %21 = call i32 @Vec_IntEntry(ptr noundef %18, i32 noundef %19)
  store i32 %21, ptr %11, align 4
  br label %22

22:                                               ; preds = %38, %3
  %23 = load i32, ptr %10, align 4
  %24 = load ptr, ptr %8, align 8
  %25 = call i32 @Vec_IntSize(ptr noundef %24)
  %26 = icmp slt i32 %23, %25
  br i1 %26, label %27, label %46

27:                                               ; preds = %22
  %28 = load ptr, ptr %12, align 8
  %29 = load ptr, ptr %8, align 8
  %30 = load i32, ptr %10, align 4
  %31 = call ptr @Vec_IntEntryP(ptr noundef %29, i32 noundef %30)
  %32 = load ptr, ptr %8, align 8
  %33 = load i32, ptr %10, align 4
  %34 = load i32, ptr %11, align 4
  %35 = add nsw i32 %33, %34
  %36 = call ptr @Vec_IntEntryP(ptr noundef %32, i32 noundef %35)
  %37 = call i32 @sat_solver_addclause(ptr noundef %28, ptr noundef %31, ptr noundef %36)
  br label %38

38:                                               ; preds = %27
  %39 = load i32, ptr %11, align 4
  %40 = load i32, ptr %10, align 4
  %41 = add nsw i32 %40, %39
  store i32 %41, ptr %10, align 4
  %42 = load ptr, ptr %8, align 8
  %43 = load i32, ptr %10, align 4
  %44 = add nsw i32 %43, 1
  store i32 %44, ptr %10, align 4
  %45 = call i32 @Vec_IntEntry(ptr noundef %42, i32 noundef %43)
  store i32 %45, ptr %11, align 4
  br label %22, !llvm.loop !17

46:                                               ; preds = %22
  %47 = load ptr, ptr %5, align 8
  %48 = icmp ne ptr %47, null
  br i1 %48, label %49, label %52

49:                                               ; preds = %46
  %50 = load ptr, ptr %7, align 8
  %51 = load ptr, ptr %5, align 8
  store ptr %50, ptr %51, align 8
  br label %52

52:                                               ; preds = %49, %46
  %53 = load ptr, ptr %6, align 8
  %54 = icmp ne ptr %53, null
  br i1 %54, label %55, label %58

55:                                               ; preds = %52
  %56 = load ptr, ptr %8, align 8
  %57 = load ptr, ptr %6, align 8
  store ptr %56, ptr %57, align 8
  br label %58

58:                                               ; preds = %55, %52
  %59 = load ptr, ptr %12, align 8
  ret ptr %59
}