; Function Attrs: nounwind uwtable
define noundef ptr @Sbm_AddCardinSolver2(i32 noundef %0, ptr noundef writeonly %1, ptr noundef writeonly %2) local_unnamed_addr #0 {
  %4 = alloca ptr, align 8
  %5 = alloca ptr, align 8
  store ptr null, ptr %4, align 8
  store ptr null, ptr %5, align 8
  %6 = call i32 @Card_AddCardinSolver(i32 noundef %0, ptr noundef nonnull %4, ptr noundef nonnull %5)
  %7 = tail call ptr @sat_solver_new() #16
  tail call void @sat_solver_setnvars(ptr noundef %7, i32 noundef %6) #16
  %8 = load ptr, ptr %5, align 8
  %9 = getelementptr i8, ptr %8, i64 8
  %10 = getelementptr i8, ptr %8, i64 4
  %.val24 = load i32, ptr %10, align 4
  %11 = icmp sgt i32 %.val24, 1
  br i1 %11, label %.lr.ph.preheader, label %._crit_edge

.lr.ph.preheader:                                 ; preds = %3
  %.val21 = load ptr, ptr %9, align 8
  br label %.lr.ph

.lr.ph:                                           ; preds = %.lr.ph.preheader, %.lr.ph
  %.val22 = phi ptr [ %.val20, %.lr.ph ], [ %.val21, %.lr.ph.preheader ]
  %.026 = phi i32 [ %18, %.lr.ph ], [ 1, %.lr.ph.preheader ]
  %.016.in25 = phi ptr [ %19, %.lr.ph ], [ %.val21, %.lr.ph.preheader ]
  %.016 = load i32, ptr %.016.in25, align 4
  %12 = sext i32 %.026 to i64
  %13 = getelementptr inbounds i32, ptr %.val22, i64 %12
  %14 = add nsw i32 %.016, %.026
  %15 = sext i32 %14 to i64
  %16 = getelementptr inbounds i32, ptr %.val22, i64 %15
  %17 = tail call i32 @sat_solver_addclause(ptr noundef %7, ptr noundef %13, ptr noundef %16) #16
  %18 = add nsw i32 %14, 1
  %.val20 = load ptr, ptr %9, align 8
  %19 = getelementptr inbounds i32, ptr %.val20, i64 %15
  %.val = load i32, ptr %10, align 4
  %20 = icmp slt i32 %18, %.val
  br i1 %20, label %.lr.ph, label %._crit_edge, !llvm.loop !17

._crit_edge:                                      ; preds = %.lr.ph, %3
  %.not = icmp eq ptr %1, null
  br i1 %.not, label %23, label %21

21:                                               ; preds = %._crit_edge
  %22 = load ptr, ptr %4, align 8
  store ptr %22, ptr %1, align 8
  br label %23

23:                                               ; preds = %21, %._crit_edge
  %.not19 = icmp eq ptr %2, null
  br i1 %.not19, label %25, label %24

24:                                               ; preds = %23
  store ptr %8, ptr %2, align 8
  br label %25

25:                                               ; preds = %24, %23
  ret ptr %7
}